; Function Attrs: nounwind uwtable
define void @show_banner(i32 noundef %0, ptr noundef %1, ptr noundef %2) local_unnamed_addr #2 {
  %4 = tail call i32 @locate_option(i32 noundef %0, ptr noundef %1, ptr noundef %2, ptr noundef nonnull @.str.1) #17
  %5 = load i32, ptr @hide_banner, align 4, !tbaa !4
  %6 = icmp ne i32 %5, 0
  %7 = icmp ne i32 %4, 0
  %or.cond = select i1 %6, i1 true, i1 %7
  br i1 %or.cond, label %10, label %8

8:                                                ; preds = %3
  tail call void (ptr, i32, ptr, ...) @av_log(ptr noundef null, i32 noundef 32, ptr noundef nonnull @.str.74, ptr noundef nonnull @program_name) #17
  %9 = load i32, ptr @program_birth_year, align 4, !tbaa !4
  tail call void (ptr, i32, ptr, ...) @av_log(ptr noundef null, i32 noundef 32, ptr noundef nonnull @.str.75, i32 noundef %9, i32 noundef 2025) #17
  tail call void (ptr, i32, ptr, ...) @av_log(ptr noundef null, i32 noundef 32, ptr noundef nonnull @.str.14) #17
  tail call void (ptr, i32, ptr, ...) @av_log(ptr noundef null, i32 noundef 32, ptr noundef nonnull @.str.76, ptr noundef nonnull @.str.73, ptr noundef nonnull @.str.77) #17
  tail call void (ptr, i32, ptr, ...) @av_log(ptr noundef null, i32 noundef 32, ptr noundef nonnull @.str.78, ptr noundef nonnull @.str.73) #17
  tail call fastcc void @print_all_libs_info(i32 noundef 5)
  tail call fastcc void @print_all_libs_info(i32 noundef 3)
  br label %10

10:                                               ; preds = %3, %8
  ret void
}